target datalayout = "e-m:e-p270:32:32-p271:32:32-p272:64:64-i64:64-i128:128-f80:128-n8:16:32:64-S128"
target triple = "x86_64-pc-linux-gnu"

%struct.H5SM_master_table_t = type { %struct.H5C_cache_entry_t, i64, i32, ptr }
%struct.H5C_cache_entry_t = type { ptr, i64, i64, ptr, i8, ptr, i8, i8, i8, i8, i32, i8, i8, i8, i8, i8, i32, ptr, i32, i32, i32, i32, i32, i8, i8, ptr, ptr, ptr, ptr, ptr, ptr, i8, i32, i8, i64, ptr, i64, i64, i32, i8, i32, i32, i8, ptr, ptr, ptr }

@H5SM_init_g = global i8 0, align 1
@H5_H5SM_master_table_t_reg_free_list = global { i8, [3 x i8], i32, i32, [4 x i8], ptr, i64, ptr } { i8 0, [3 x i8] zeroinitializer, i32 0, i32 0, [4 x i8] zeroinitializer, ptr @.str, i64 272, ptr null }, align 8
@H5_H5SM_index_header_t_arr_free_list = global { i8, [3 x i8], i32, i64, ptr, i32, [4 x i8], i64, i64, ptr } { i8 0, [3 x i8] zeroinitializer, i32 0, i64 0, ptr @.str.1, i32 9, [4 x i8] zeroinitializer, i64 0, i64 72, ptr null }, align 8
@H5_libterm_g = external global i8, align 1

; Function Attrs: nounwind uwtable
define i32 @H5SM__table_free(ptr noundef %0) #0 {
  %2 = alloca ptr, align 8
  store ptr %0, ptr %2, align 8, !tbaa !12
  %3 = load i8, ptr @H5SM_init_g, align 1, !tbaa !18, !range !20, !noundef !21
  %4 = trunc i8 %3 to i1
  br i1 %4, label %9, label %5

5:                                                ; preds = %1
  %6 = load i8, ptr @H5_libterm_g, align 1, !tbaa !18, !range !20, !noundef !21
  %7 = trunc i8 %6 to i1
  %8 = xor i1 %7, true
  br label %9

9:                                                ; preds = %5, %1
  %10 = phi i1 [ true, %1 ], [ %8, %5 ]
  %11 = xor i1 %10, true
  %12 = xor i1 %11, true
  %13 = zext i1 %12 to i32
  %14 = sext i32 %13 to i64
  %15 = call i64 @llvm.expect.i64(i64 %14, i64 1)
  %16 = icmp ne i64 %15, 0
  br i1 %16, label %17, label %26

17:                                               ; preds = %9
  %18 = load ptr, ptr %2, align 8, !tbaa !12
  %19 = getelementptr inbounds nuw %struct.H5SM_master_table_t, ptr %18, i32 0, i32 3
  %20 = load ptr, ptr %19, align 8, !tbaa !34
  %21 = call ptr @H5FL_arr_free(ptr noundef @H5_H5SM_index_header_t_arr_free_list, ptr noundef %20)
  %22 = load ptr, ptr %2, align 8, !tbaa !12
  %23 = getelementptr inbounds nuw %struct.H5SM_master_table_t, ptr %22, i32 0, i32 3
  store ptr %21, ptr %23, align 8, !tbaa !34
  %24 = load ptr, ptr %2, align 8, !tbaa !12
  %25 = call ptr @H5FL_reg_free(ptr noundef @H5_H5SM_master_table_t_reg_free_list, ptr noundef %24)
  store ptr %25, ptr %2, align 8, !tbaa !12
  br label %26

26:                                               ; preds = %17, %9
  ret i32 0
}